; Function Attrs: inlinehint mustprogress nounwind uwtable
define internal fastcc void @_ZNSt14_Optional_baseIN9grpc_core12_GLOBAL__N_110RbacConfig10RbacPolicy5Rules6Policy10PermissionELb0ELb0EED2Ev(ptr noundef nonnull align 8 captures(none) dereferenceable(16) %0) unnamed_addr #8 align 2 personality ptr @__gxx_personality_v0 {
  %2 = getelementptr inbounds nuw i8, ptr %0, i64 8
  %3 = load i8, ptr %2, align 8, !tbaa !317, !range !32, !noundef !33
  %4 = trunc nuw i8 %3 to i1
  br i1 %4, label %5, label %_ZNSt17_Optional_payloadIN9grpc_core12_GLOBAL__N_110RbacConfig10RbacPolicy5Rules6Policy10PermissionELb0ELb0ELb0EED2Ev.exit

5:                                                ; preds = %1
  store i8 0, ptr %2, align 8, !tbaa !317
  %6 = load ptr, ptr %0, align 8, !tbaa !140
  %.not.i.i.i.i.i = icmp eq ptr %6, null
  br i1 %.not.i.i.i.i.i, label %_ZNSt22_Optional_payload_baseIN9grpc_core12_GLOBAL__N_110RbacConfig10RbacPolicy5Rules6Policy10PermissionEE10_M_destroyEv.exit.i.i, label %_ZNKSt14default_deleteIN9grpc_core4Rbac10PermissionEEclEPS2_.exit.i.i.i.i.i

_ZNKSt14default_deleteIN9grpc_core4Rbac10PermissionEEclEPS2_.exit.i.i.i.i.i: ; preds = %5
  tail call void @_ZN9grpc_core4Rbac10PermissionD2Ev(ptr noundef nonnull align 8 dereferenceable(257) %6) #26
  tail call void @_ZdlPvm(ptr noundef nonnull %6, i64 noundef 264) #30
  br label %_ZNSt22_Optional_payload_baseIN9grpc_core12_GLOBAL__N_110RbacConfig10RbacPolicy5Rules6Policy10PermissionEE10_M_destroyEv.exit.i.i

_ZNSt22_Optional_payload_baseIN9grpc_core12_GLOBAL__N_110RbacConfig10RbacPolicy5Rules6Policy10PermissionEE10_M_destroyEv.exit.i.i: ; preds = %_ZNKSt14default_deleteIN9grpc_core4Rbac10PermissionEEclEPS2_.exit.i.i.i.i.i, %5
  store ptr null, ptr %0, align 8, !tbaa !140
  br label %_ZNSt17_Optional_payloadIN9grpc_core12_GLOBAL__N_110RbacConfig10RbacPolicy5Rules6Policy10PermissionELb0ELb0ELb0EED2Ev.exit

_ZNSt17_Optional_payloadIN9grpc_core12_GLOBAL__N_110RbacConfig10RbacPolicy5Rules6Policy10PermissionELb0ELb0ELb0EED2Ev.exit: ; preds = %1, %_ZNSt22_Optional_payload_baseIN9grpc_core12_GLOBAL__N_110RbacConfig10RbacPolicy5Rules6Policy10PermissionEE10_M_destroyEv.exit.i.i
  ret void
}